(lp0
(S'cppflags'
p1
ccopy_reg
_reconstructor
p2
(cino.utils
SpaceList
p3
c__builtin__
list
p4
(lp5
S'-mmcu=atmega328p'
p6
aS'-DF_CPU=16000000L'
p7
aS'-DARDUINO=101'
p8
aS'-I/usr/share/arduino/hardware/arduino/cores/arduino'
p9
aS'-ffunction-sections'
p10
aS'-fdata-sections'
p11
aS'-g'
p12
aS'-Os'
p13
aS'-w'
p14
aS'-I/usr/share/arduino/hardware/arduino/variants/standard'
p15
aS'-Ilib/Adafruit_NeoMatrix'
p16
aS'-Ilib/Adafruit_NeoMatrix/extras'
p17
aS'-Ilib/Adafruit_NeoPixel'
p18
aS'-Ilib/Adafruit_GFX'
p19
aS'-I/usr/share/arduino/hardware/arduino/cores/arduino'
p20
atp21
Rp22
tp23
a(S'version.txt'
p24
S'/usr/share/arduino/lib/version.txt'
p25
tp26
a(S'used_libs'
p27
(lp28
S'lib/Adafruit_NeoMatrix'
p29
aS'lib/Adafruit_NeoPixel'
p30
aS'lib/Adafruit_GFX'
p31
aS'/usr/share/arduino/hardware/arduino/cores/arduino'
p32
atp33
a(S'cc'
p34
S'/usr/bin/avr-gcc'
p35
tp36
a(S'make'
p37
S'/usr/bin/make'
p38
tp39
a(S'build_dir'
p40
S'.build/uno'
p41
tp42
a(S'arduino_core_dir'
p43
g32
tp44
a(S'boards.txt'
p45
(lp46
S'/usr/share/arduino/hardware/arduino/boards.txt'
p47
atp48
a(S'cxxflags'
p49
g2
(g3
g4
(lp50
S'-fno-exceptions'
p51
atp52
Rp53
tp54
a(S'arduino_variants_dir'
p55
S'/usr/share/arduino/hardware/arduino/variants'
p56
tp57
a(S'deps'
p58
g2
(g3
g4
(lp59
S'.build/uno/src/dependencies.d'
p60
aS'.build/uno/arduino/dependencies.d'
p61
aS'.build/uno/Adafruit_NeoMatrix/dependencies.d'
p62
aS'.build/uno/Adafruit_NeoPixel/dependencies.d'
p63
aS'.build/uno/Adafruit_GFX/dependencies.d'
p64
atp65
Rp66
tp67
a(S'ar'
p68
S'/usr/bin/avr-ar'
p69
tp70
a(S'names'
p71
(dp72
S'cpp'
p73
S'%s.cpp'
p74
sS'obj'
p75
S'%s.o'
p76
sg58
S'%s.d'
p77
sS'lib'
p78
S'lib%s.a'
p79
stp80
a(S'cflags'
p81
g2
(g3
g4
(lp82
tp83
Rp84
tp85
a(S'ldflags'
p86
g2
(g3
g4
(lp87
g6
aS'-Wl,-Os'
p88
aS'-Wl,--gc-sections'
p89
atp90
Rp91
tp92
a(S'arduino_libraries_dir'
p93
S'/usr/share/arduino/libraries'
p94
tp95
a(S'arduino_lib_version'
p96
g2
(cino.environment
Version
p97
c__builtin__
tuple
p98
(I1
I0
I1
tp99
tp100
Rp101
tp102
a(S'objcopy'
p103
S'/usr/bin/avr-objcopy'
p104
tp105
a(S'board_models'
p106
cino.environment
BoardModels
p107
((lp108
(lp109
S'uno'
p110
a(dp111
S'build'
p112
(dp113
S'core'
p114
S'arduino'
p115
sS'mcu'
p116
S'atmega328p'
p117
sS'f_cpu'
p118
S'16000000L'
p119
sS'variant'
p120
S'standard'
p121
ssS'bootloader'
p122
(dp123
S'extended_fuses'
p124
S'0x05'
p125
sS'high_fuses'
p126
S'0xde'
p127
sS'low_fuses'
p128
S'0xff'
p129
sS'lock_bits'
p130
S'0x0F'
p131
sS'file'
p132
S'optiboot_atmega328.hex'
p133
sS'path'
p134
S'optiboot'
p135
sS'unlock_bits'
p136
S'0x3F'
p137
ssS'upload'
p138
(dp139
S'speed'
p140
S'115200'
p141
sS'maximum_size'
p142
S'32256'
p143
sS'protocol'
p144
S'arduino'
p145
ssS'name'
p146
S'Arduino Uno'
p147
sS'_coredir'
p148
S'/usr/share/arduino/hardware/arduino'
p149
saa(lp150
S'atmega328'
p151
a(dp152
S'build'
p153
(dp154
S'core'
p155
S'arduino'
p156
sS'mcu'
p157
S'atmega328p'
p158
sS'f_cpu'
p159
S'16000000L'
p160
sS'variant'
p161
S'standard'
p162
ssS'bootloader'
p163
(dp164
S'extended_fuses'
p165
S'0x05'
p166
sS'high_fuses'
p167
S'0xDA'
p168
sS'low_fuses'
p169
S'0xFF'
p170
sS'lock_bits'
p171
S'0x0F'
p172
sS'file'
p173
S'ATmegaBOOT_168_atmega328.hex'
p174
sS'path'
p175
S'atmega'
p176
sS'unlock_bits'
p177
S'0x3F'
p178
ssS'upload'
p179
(dp180
S'speed'
p181
S'57600'
p182
sS'maximum_size'
p183
S'30720'
p184
sS'protocol'
p185
S'arduino'
p186
ssS'name'
p187
S'Arduino Duemilanove w/ ATmega328'
p188
sg148
S'/usr/share/arduino/hardware/arduino'
p189
saa(lp190
S'diecimila'
p191
a(dp192
S'build'
p193
(dp194
S'core'
p195
S'arduino'
p196
sS'mcu'
p197
S'atmega168'
p198
sS'f_cpu'
p199
S'16000000L'
p200
sS'variant'
p201
S'standard'
p202
ssS'bootloader'
p203
(dp204
S'extended_fuses'
p205
S'0x00'
p206
sS'high_fuses'
p207
S'0xdd'
p208
sS'low_fuses'
p209
S'0xff'
p210
sS'lock_bits'
p211
S'0x0F'
p212
sS'file'
p213
S'ATmegaBOOT_168_diecimila.hex'
p214
sS'path'
p215
S'atmega'
p216
sS'unlock_bits'
p217
S'0x3F'
p218
ssS'upload'
p219
(dp220
S'speed'
p221
S'19200'
p222
sS'maximum_size'
p223
S'14336'
p224
sS'protocol'
p225
S'arduino'
p226
ssS'name'
p227
S'Arduino Diecimila or Duemilanove w/ ATmega168'
p228
sg148
S'/usr/share/arduino/hardware/arduino'
p229
saa(lp230
S'nano328'
p231
a(dp232
S'build'
p233
(dp234
S'core'
p235
S'arduino'
p236
sS'mcu'
p237
S'atmega328p'
p238
sS'f_cpu'
p239
S'16000000L'
p240
sS'variant'
p241
S'eightanaloginputs'
p242
ssS'bootloader'
p243
(dp244
S'extended_fuses'
p245
S'0x05'
p246
sS'high_fuses'
p247
S'0xDA'
p248
sS'low_fuses'
p249
S'0xFF'
p250
sS'lock_bits'
p251
S'0x0F'
p252
sS'file'
p253
S'ATmegaBOOT_168_atmega328.hex'
p254
sS'path'
p255
S'atmega'
p256
sS'unlock_bits'
p257
S'0x3F'
p258
ssS'upload'
p259
(dp260
S'speed'
p261
S'57600'
p262
sS'maximum_size'
p263
S'30720'
p264
sS'protocol'
p265
S'arduino'
p266
ssS'name'
p267
S'Arduino Nano w/ ATmega328'
p268
sg148
S'/usr/share/arduino/hardware/arduino'
p269
saa(lp270
S'nano'
p271
a(dp272
S'build'
p273
(dp274
S'core'
p275
S'arduino'
p276
sS'mcu'
p277
S'atmega168'
p278
sS'f_cpu'
p279
S'16000000L'
p280
sS'variant'
p281
S'eightanaloginputs'
p282
ssS'bootloader'
p283
(dp284
S'extended_fuses'
p285
S'0x00'
p286
sS'high_fuses'
p287
S'0xdd'
p288
sS'low_fuses'
p289
S'0xff'
p290
sS'lock_bits'
p291
S'0x0F'
p292
sS'file'
p293
S'ATmegaBOOT_168_diecimila.hex'
p294
sS'path'
p295
S'atmega'
p296
sS'unlock_bits'
p297
S'0x3F'
p298
ssS'upload'
p299
(dp300
S'speed'
p301
S'19200'
p302
sS'maximum_size'
p303
S'14336'
p304
sS'protocol'
p305
S'arduino'
p306
ssS'name'
p307
S'Arduino Nano w/ ATmega168'
p308
sg148
S'/usr/share/arduino/hardware/arduino'
p309
saa(lp310
S'mega2560'
p311
a(dp312
S'build'
p313
(dp314
S'core'
p315
S'arduino'
p316
sS'mcu'
p317
S'atmega2560'
p318
sS'f_cpu'
p319
S'16000000L'
p320
sS'variant'
p321
S'mega'
p322
ssS'bootloader'
p323
(dp324
S'extended_fuses'
p325
S'0xFD'
p326
sS'high_fuses'
p327
S'0xD8'
p328
sS'low_fuses'
p329
S'0xFF'
p330
sS'lock_bits'
p331
S'0x0F'
p332
sS'file'
p333
S'stk500boot_v2_mega2560.hex'
p334
sS'path'
p335
S'stk500v2'
p336
sS'unlock_bits'
p337
S'0x3F'
p338
ssS'upload'
p339
(dp340
S'speed'
p341
S'115200'
p342
sS'maximum_size'
p343
S'258048'
p344
sS'protocol'
p345
S'stk500v2'
p346
ssS'name'
p347
S'Arduino Mega 2560 or Mega ADK'
p348
sg148
S'/usr/share/arduino/hardware/arduino'
p349
saa(lp350
S'mega'
p351
a(dp352
S'build'
p353
(dp354
S'core'
p355
S'arduino'
p356
sS'mcu'
p357
S'atmega1280'
p358
sS'f_cpu'
p359
S'16000000L'
p360
sS'variant'
p361
S'mega'
p362
ssS'bootloader'
p363
(dp364
S'extended_fuses'
p365
S'0xF5'
p366
sS'high_fuses'
p367
S'0xDA'
p368
sS'low_fuses'
p369
S'0xFF'
p370
sS'lock_bits'
p371
S'0x0F'
p372
sS'file'
p373
S'ATmegaBOOT_168_atmega1280.hex'
p374
sS'path'
p375
S'atmega'
p376
sS'unlock_bits'
p377
S'0x3F'
p378
ssS'upload'
p379
(dp380
S'speed'
p381
S'57600'
p382
sS'maximum_size'
p383
S'126976'
p384
sS'protocol'
p385
S'arduino'
p386
ssS'name'
p387
S'Arduino Mega (ATmega1280)'
p388
sg148
S'/usr/share/arduino/hardware/arduino'
p389
saa(lp390
S'leonardo'
p391
a(dp392
S'build'
p393
(dp394
S'core'
p395
S'arduino'
p396
sS'f_cpu'
p397
S'16000000L'
p398
sS'vid'
p399
S'0x2341'
p400
sS'pid'
p401
S'0x8036'
p402
sS'variant'
p403
S'leonardo'
p404
sS'mcu'
p405
S'atmega32u4'
p406
ssS'bootloader'
p407
(dp408
S'extended_fuses'
p409
S'0xcb'
p410
sS'high_fuses'
p411
S'0xd8'
p412
sS'low_fuses'
p413
S'0xff'
p414
sS'lock_bits'
p415
S'0x2F'
p416
sS'file'
p417
S'Caterina-Leonardo.hex'
p418
sS'path'
p419
S'caterina'
p420
sS'unlock_bits'
p421
S'0x3F'
p422
ssS'upload'
p423
(dp424
S'speed'
p425
S'57600'
p426
sS'maximum_size'
p427
S'28672'
p428
sS'protocol'
p429
S'avr109'
p430
sS'disable_flushing'
p431
S'true'
p432
ssS'name'
p433
S'Arduino Leonardo'
p434
sg148
S'/usr/share/arduino/hardware/arduino'
p435
saa(lp436
S'mini328'
p437
a(dp438
S'build'
p439
(dp440
S'core'
p441
S'arduino'
p442
sS'mcu'
p443
S'atmega328p'
p444
sS'f_cpu'
p445
S'16000000L'
p446
sS'variant'
p447
S'eightanaloginputs'
p448
ssS'bootloader'
p449
(dp450
S'extended_fuses'
p451
S'0x05'
p452
sS'high_fuses'
p453
S'0xd8'
p454
sS'low_fuses'
p455
S'0xff'
p456
sS'lock_bits'
p457
S'0x0F'
p458
sS'file'
p459
S'optiboot_atmega328-Mini.hex'
p460
sS'path'
p461
S'optiboot'
p462
sS'unlock_bits'
p463
S'0x3F'
p464
ssS'upload'
p465
(dp466
S'speed'
p467
S'115200'
p468
sS'maximum_size'
p469
S'28672'
p470
sS'protocol'
p471
S'arduino'
p472
ssS'name'
p473
S'Arduino Mini w/ ATmega328'
p474
sg148
S'/usr/share/arduino/hardware/arduino'
p475
saa(lp476
S'mini'
p477
a(dp478
S'build'
p479
(dp480
S'core'
p481
S'arduino'
p482
sS'mcu'
p483
S'atmega168'
p484
sS'f_cpu'
p485
S'16000000L'
p486
sS'variant'
p487
S'eightanaloginputs'
p488
ssS'bootloader'
p489
(dp490
S'extended_fuses'
p491
S'0x00'
p492
sS'high_fuses'
p493
S'0xdd'
p494
sS'low_fuses'
p495
S'0xff'
p496
sS'lock_bits'
p497
S'0x0F'
p498
sS'file'
p499
S'ATmegaBOOT_168_ng.hex'
p500
sS'path'
p501
S'atmega'
p502
sS'unlock_bits'
p503
S'0x3F'
p504
ssS'upload'
p505
(dp506
S'speed'
p507
S'19200'
p508
sS'maximum_size'
p509
S'14336'
p510
sS'protocol'
p511
S'arduino'
p512
ssS'name'
p513
S'Arduino Mini w/ ATmega168'
p514
sg148
S'/usr/share/arduino/hardware/arduino'
p515
saa(lp516
S'ethernet'
p517
a(dp518
S'build'
p519
(dp520
S'f_cpu'
p521
S'16000000L'
p522
sS'mcu'
p523
S'atmega328p'
p524
sS'variant'
p525
S'standard'
p526
sS'core'
p527
S'arduino'
p528
ssS'bootloader'
p529
(dp530
S'extended_fuses'
p531
S'0x05'
p532
sS'high_fuses'
p533
S'0xde'
p534
sS'low_fuses'
p535
S'0xff'
p536
sS'lock_bits'
p537
S'0x0F'
p538
sS'file'
p539
S'optiboot_atmega328.hex'
p540
sS'path'
p541
S'optiboot'
p542
sS'unlock_bits'
p543
S'0x3F'
p544
ssS'upload'
p545
(dp546
S'speed'
p547
S'115200'
p548
sS'maximum_size'
p549
S'32256'
p550
sS'protocol'
p551
S'arduino'
p552
ssS'name'
p553
S'Arduino Ethernet'
p554
sg148
S'/usr/share/arduino/hardware/arduino'
p555
saa(lp556
S'fio'
p557
a(dp558
S'build'
p559
(dp560
S'core'
p561
S'arduino'
p562
sS'mcu'
p563
S'atmega328p'
p564
sS'f_cpu'
p565
S'8000000L'
p566
sS'variant'
p567
S'eightanaloginputs'
p568
ssS'bootloader'
p569
(dp570
S'extended_fuses'
p571
S'0x05'
p572
sS'high_fuses'
p573
S'0xDA'
p574
sS'low_fuses'
p575
S'0xFF'
p576
sS'lock_bits'
p577
S'0x0F'
p578
sS'file'
p579
S'ATmegaBOOT_168_atmega328_pro_8MHz.hex'
p580
sS'path'
p581
S'arduino:atmega'
p582
sS'unlock_bits'
p583
S'0x3F'
p584
ssS'upload'
p585
(dp586
S'speed'
p587
S'57600'
p588
sS'maximum_size'
p589
S'30720'
p590
sS'protocol'
p591
S'arduino'
p592
ssS'name'
p593
S'Arduino Fio'
p594
sg148
S'/usr/share/arduino/hardware/arduino'
p595
saa(lp596
S'bt328'
p597
a(dp598
S'build'
p599
(dp600
S'core'
p601
S'arduino'
p602
sS'mcu'
p603
S'atmega328p'
p604
sS'f_cpu'
p605
S'16000000L'
p606
sS'variant'
p607
S'eightanaloginputs'
p608
ssS'bootloader'
p609
(dp610
S'extended_fuses'
p611
S'0x05'
p612
sS'high_fuses'
p613
S'0xd8'
p614
sS'low_fuses'
p615
S'0xff'
p616
sS'lock_bits'
p617
S'0x0F'
p618
sS'file'
p619
S'ATmegaBOOT_168_atmega328_bt.hex'
p620
sS'path'
p621
S'bt'
p622
sS'unlock_bits'
p623
S'0x3F'
p624
ssS'upload'
p625
(dp626
S'speed'
p627
S'19200'
p628
sS'maximum_size'
p629
S'28672'
p630
sS'protocol'
p631
S'arduino'
p632
sS'disable_flushing'
p633
S'true'
p634
ssS'name'
p635
S'Arduino BT w/ ATmega328'
p636
sg148
S'/usr/share/arduino/hardware/arduino'
p637
saa(lp638
S'bt'
p639
a(dp640
S'build'
p641
(dp642
S'core'
p643
S'arduino'
p644
sS'mcu'
p645
S'atmega168'
p646
sS'f_cpu'
p647
S'16000000L'
p648
sS'variant'
p649
S'eightanaloginputs'
p650
ssS'bootloader'
p651
(dp652
S'extended_fuses'
p653
S'0x00'
p654
sS'high_fuses'
p655
S'0xdd'
p656
sS'low_fuses'
p657
S'0xff'
p658
sS'lock_bits'
p659
S'0x0F'
p660
sS'file'
p661
S'ATmegaBOOT_168.hex'
p662
sS'path'
p663
S'bt'
p664
sS'unlock_bits'
p665
S'0x3F'
p666
ssS'upload'
p667
(dp668
S'speed'
p669
S'19200'
p670
sS'maximum_size'
p671
S'14336'
p672
sS'protocol'
p673
S'arduino'
p674
sS'disable_flushing'
p675
S'true'
p676
ssS'name'
p677
S'Arduino BT w/ ATmega168'
p678
sg148
S'/usr/share/arduino/hardware/arduino'
p679
saa(lp680
S'lilypad328'
p681
a(dp682
S'build'
p683
(dp684
S'core'
p685
S'arduino'
p686
sS'mcu'
p687
S'atmega328p'
p688
sS'f_cpu'
p689
S'8000000L'
p690
sS'variant'
p691
S'standard'
p692
ssS'bootloader'
p693
(dp694
S'extended_fuses'
p695
S'0x05'
p696
sS'high_fuses'
p697
S'0xDA'
p698
sS'low_fuses'
p699
S'0xFF'
p700
sS'lock_bits'
p701
S'0x0F'
p702
sS'file'
p703
S'ATmegaBOOT_168_atmega328_pro_8MHz.hex'
p704
sS'path'
p705
S'atmega'
p706
sS'unlock_bits'
p707
S'0x3F'
p708
ssS'upload'
p709
(dp710
S'speed'
p711
S'57600'
p712
sS'maximum_size'
p713
S'30720'
p714
sS'protocol'
p715
S'arduino'
p716
ssS'name'
p717
S'LilyPad Arduino w/ ATmega328'
p718
sg148
S'/usr/share/arduino/hardware/arduino'
p719
saa(lp720
S'lilypad'
p721
a(dp722
S'build'
p723
(dp724
S'core'
p725
S'arduino'
p726
sS'mcu'
p727
S'atmega168'
p728
sS'f_cpu'
p729
S'8000000L'
p730
sS'variant'
p731
S'standard'
p732
ssS'bootloader'
p733
(dp734
S'extended_fuses'
p735
S'0x00'
p736
sS'high_fuses'
p737
S'0xdd'
p738
sS'low_fuses'
p739
S'0xe2'
p740
sS'lock_bits'
p741
S'0x0F'
p742
sS'file'
p743
S'LilyPadBOOT_168.hex'
p744
sS'path'
p745
S'lilypad'
p746
sS'unlock_bits'
p747
S'0x3F'
p748
ssS'upload'
p749
(dp750
S'speed'
p751
S'19200'
p752
sS'maximum_size'
p753
S'14336'
p754
sS'protocol'
p755
S'arduino'
p756
ssS'name'
p757
S'LilyPad Arduino w/ ATmega168'
p758
sg148
S'/usr/share/arduino/hardware/arduino'
p759
saa(lp760
S'pro5v328'
p761
a(dp762
S'build'
p763
(dp764
S'core'
p765
S'arduino'
p766
sS'mcu'
p767
S'atmega328p'
p768
sS'f_cpu'
p769
S'16000000L'
p770
sS'variant'
p771
S'standard'
p772
ssS'bootloader'
p773
(dp774
S'extended_fuses'
p775
S'0x05'
p776
sS'high_fuses'
p777
S'0xDA'
p778
sS'low_fuses'
p779
S'0xFF'
p780
sS'lock_bits'
p781
S'0x0F'
p782
sS'file'
p783
S'ATmegaBOOT_168_atmega328.hex'
p784
sS'path'
p785
S'atmega'
p786
sS'unlock_bits'
p787
S'0x3F'
p788
ssS'upload'
p789
(dp790
S'speed'
p791
S'57600'
p792
sS'maximum_size'
p793
S'30720'
p794
sS'protocol'
p795
S'arduino'
p796
ssS'name'
p797
S'Arduino Pro or Pro Mini (5V, 16 MHz) w/ ATmega328'
p798
sg148
S'/usr/share/arduino/hardware/arduino'
p799
saa(lp800
S'pro5v'
p801
a(dp802
S'build'
p803
(dp804
S'core'
p805
S'arduino'
p806
sS'mcu'
p807
S'atmega168'
p808
sS'f_cpu'
p809
S'16000000L'
p810
sS'variant'
p811
S'standard'
p812
ssS'bootloader'
p813
(dp814
S'extended_fuses'
p815
S'0x00'
p816
sS'high_fuses'
p817
S'0xdd'
p818
sS'low_fuses'
p819
S'0xff'
p820
sS'lock_bits'
p821
S'0x0F'
p822
sS'file'
p823
S'ATmegaBOOT_168_diecimila.hex'
p824
sS'path'
p825
S'atmega'
p826
sS'unlock_bits'
p827
S'0x3F'
p828
ssS'upload'
p829
(dp830
S'speed'
p831
S'19200'
p832
sS'maximum_size'
p833
S'14336'
p834
sS'protocol'
p835
S'arduino'
p836
ssS'name'
p837
S'Arduino Pro or Pro Mini (5V, 16 MHz) w/ ATmega168'
p838
sg148
S'/usr/share/arduino/hardware/arduino'
p839
saa(lp840
S'pro328'
p841
a(dp842
S'build'
p843
(dp844
S'core'
p845
S'arduino'
p846
sS'mcu'
p847
S'atmega328p'
p848
sS'f_cpu'
p849
S'8000000L'
p850
sS'variant'
p851
S'standard'
p852
ssS'bootloader'
p853
(dp854
S'extended_fuses'
p855
S'0x05'
p856
sS'high_fuses'
p857
S'0xDA'
p858
sS'low_fuses'
p859
S'0xFF'
p860
sS'lock_bits'
p861
S'0x0F'
p862
sS'file'
p863
S'ATmegaBOOT_168_atmega328_pro_8MHz.hex'
p864
sS'path'
p865
S'atmega'
p866
sS'unlock_bits'
p867
S'0x3F'
p868
ssS'upload'
p869
(dp870
S'speed'
p871
S'57600'
p872
sS'maximum_size'
p873
S'30720'
p874
sS'protocol'
p875
S'arduino'
p876
ssS'name'
p877
S'Arduino Pro or Pro Mini (3.3V, 8 MHz) w/ ATmega328'
p878
sg148
S'/usr/share/arduino/hardware/arduino'
p879
saa(lp880
S'pro'
p881
a(dp882
S'build'
p883
(dp884
S'core'
p885
S'arduino'
p886
sS'mcu'
p887
S'atmega168'
p888
sS'f_cpu'
p889
S'8000000L'
p890
sS'variant'
p891
S'standard'
p892
ssS'bootloader'
p893
(dp894
S'extended_fuses'
p895
S'0x00'
p896
sS'high_fuses'
p897
S'0xdd'
p898
sS'low_fuses'
p899
S'0xc6'
p900
sS'lock_bits'
p901
S'0x0F'
p902
sS'file'
p903
S'ATmegaBOOT_168_pro_8MHz.hex'
p904
sS'path'
p905
S'atmega'
p906
sS'unlock_bits'
p907
S'0x3F'
p908
ssS'upload'
p909
(dp910
S'speed'
p911
S'19200'
p912
sS'maximum_size'
p913
S'14336'
p914
sS'protocol'
p915
S'arduino'
p916
ssS'name'
p917
S'Arduino Pro or Pro Mini (3.3V, 8 MHz) w/ ATmega168'
p918
sg148
S'/usr/share/arduino/hardware/arduino'
p919
saa(lp920
S'atmega168'
p921
a(dp922
S'build'
p923
(dp924
S'core'
p925
S'arduino'
p926
sS'mcu'
p927
S'atmega168'
p928
sS'f_cpu'
p929
S'16000000L'
p930
sS'variant'
p931
S'standard'
p932
ssS'bootloader'
p933
(dp934
S'extended_fuses'
p935
S'0x00'
p936
sS'high_fuses'
p937
S'0xdd'
p938
sS'low_fuses'
p939
S'0xff'
p940
sS'lock_bits'
p941
S'0x0F'
p942
sS'file'
p943
S'ATmegaBOOT_168_ng.hex'
p944
sS'path'
p945
S'atmega'
p946
sS'unlock_bits'
p947
S'0x3F'
p948
ssS'upload'
p949
(dp950
S'speed'
p951
S'19200'
p952
sS'maximum_size'
p953
S'14336'
p954
sS'protocol'
p955
S'arduino'
p956
ssS'name'
p957
S'Arduino NG or older w/ ATmega168'
p958
sg148
S'/usr/share/arduino/hardware/arduino'
p959
saa(lp960
S'atmega8'
p961
a(dp962
S'build'
p963
(dp964
S'core'
p965
S'arduino'
p966
sS'mcu'
p967
S'atmega8'
p968
sS'f_cpu'
p969
S'16000000L'
p970
sS'variant'
p971
S'standard'
p972
ssS'bootloader'
p973
(dp974
S'high_fuses'
p975
S'0xca'
p976
sS'low_fuses'
p977
S'0xdf'
p978
sS'lock_bits'
p979
S'0x0F'
p980
sS'file'
p981
S'ATmegaBOOT.hex'
p982
sS'path'
p983
S'atmega8'
p984
sS'unlock_bits'
p985
S'0x3F'
p986
ssS'upload'
p987
(dp988
S'speed'
p989
S'19200'
p990
sS'maximum_size'
p991
S'7168'
p992
sS'protocol'
p993
S'arduino'
p994
ssS'name'
p995
S'Arduino NG or older w/ ATmega8'
p996
sg148
S'/usr/share/arduino/hardware/arduino'
p997
saatp998
Rp999
(dp1000
S'default'
p1001
S'uno'
p1002
sbtp1003
a(S'cxx'
p1004
S'/usr/bin/avr-g++'
p1005
tp1006
a.